target datalayout = "e-m:e-p270:32:32-p271:32:32-p272:64:64-i64:64-i128:128-f80:128-n8:16:32:64-S128"
target triple = "x86_64-pc-linux-gnu"

%struct.slurm_conf_t = type { i64, ptr, i16, ptr, ptr, ptr, ptr, ptr, i16, ptr, ptr, ptr, ptr, ptr, ptr, ptr, i16, ptr, ptr, ptr, ptr, i16, ptr, ptr, ptr, i64, ptr, ptr, ptr, ptr, i16, ptr, ptr, i16, i32, ptr, i32, ptr, i32, i32, ptr, ptr, i64, i64, ptr, i16, i16, ptr, i32, i32, ptr, i32, ptr, i32, i16, i16, i16, ptr, i16, i16, ptr, ptr, i32, i16, i16, ptr, i32, i16, ptr, ptr, ptr, ptr, i16, ptr, ptr, ptr, ptr, i32, ptr, ptr, ptr, ptr, i16, i16, ptr, i32, i32, i32, i16, i16, ptr, ptr, i16, ptr, ptr, i32, i32, i32, i32, i32, i64, i32, i32, i16, ptr, ptr, i32, ptr, ptr, ptr, i16, i32, ptr, ptr, i16, ptr, ptr, i32, i16, ptr, ptr, ptr, ptr, i32, i32, i16, i16, i32, ptr, i16, ptr, i32, i32, i32, i32, i32, i32, ptr, i16, ptr, ptr, i32, i16, ptr, i32, i16, i16, ptr, ptr, ptr, i16, ptr, ptr, ptr, ptr, i16, i16, ptr, i16, ptr, i16, ptr, i16, ptr, i16, ptr, ptr, ptr, ptr, i16, ptr, ptr, ptr, i32, ptr, i32, ptr, ptr, i16, ptr, ptr, i32, i16, ptr, ptr, i16, i16, ptr, i16, ptr, ptr, ptr, i32, ptr, i16, i16, ptr, ptr, ptr, ptr, ptr, ptr, ptr, ptr, i16, i32, i16, ptr, ptr, ptr, ptr, i32, ptr, ptr, ptr, i16, ptr, ptr, ptr, i16, ptr, i16, ptr, i16, i16, ptr }
%struct.cache_table_state_t = type { i32 }

@cache_table = internal global ptr null, align 8
@.str.1 = private unnamed_addr constant [32 x i8] c"%s: pthread_rwlock_wrlock(): %m\00", align 1
@slurm_conf = external global %struct.slurm_conf_t, align 8
@.str.4 = private unnamed_addr constant [32 x i8] c"%s: pthread_rwlock_unlock(): %m\00", align 1
@.str.5 = private unnamed_addr constant [67 x i8] c"TRACE_JOBS: %s: Job state cache active with %d jobs in hash tables\00", align 1
@__func__.setup_job_state_hash = private unnamed_addr constant [21 x i8] c"setup_job_state_hash\00", align 1
@.str.6 = private unnamed_addr constant [6 x i8] c"_hash\00", align 1
@.str.7 = private unnamed_addr constant [7 x i8] c"_match\00", align 1
@.str.8 = private unnamed_addr constant [11 x i8] c"_on_insert\00", align 1
@.str.9 = private unnamed_addr constant [9 x i8] c"_on_free\00", align 1
@.str.10 = private unnamed_addr constant [17 x i8] c"_array_job_match\00", align 1
@.str.11 = private unnamed_addr constant [21 x i8] c"_array_job_on_insert\00", align 1
@.str.12 = private unnamed_addr constant [19 x i8] c"_array_job_on_free\00", align 1
@array_job_cache_table = internal global ptr null, align 8
@.str.13 = private unnamed_addr constant [17 x i8] c"_array_task_hash\00", align 1
@.str.14 = private unnamed_addr constant [18 x i8] c"_array_task_match\00", align 1
@.str.15 = private unnamed_addr constant [22 x i8] c"_array_task_on_insert\00", align 1
@.str.16 = private unnamed_addr constant [20 x i8] c"_array_task_on_free\00", align 1
@array_task_cache_table = internal global ptr null, align 8
@cache_lock = internal global { { i32, i32, i32, i32, i32, i32, i32, i32, i8, [7 x i8], i64, i32, [4 x i8] } } zeroinitializer, align 8

; Function Attrs: nounwind uwtable
define dso_local void @setup_job_state_hash(i32 noundef %0) #0 {
  %2 = alloca i32, align 4
  %3 = alloca %struct.cache_table_state_t, align 4
  %4 = alloca i32, align 4
  %5 = alloca i32, align 4
  store i32 %0, ptr %2, align 4
  call void @llvm.lifetime.start.p0(i64 4, ptr %3) #8
  %6 = getelementptr inbounds nuw %struct.cache_table_state_t, ptr %3, i32 0, i32 0
  %7 = load i32, ptr %2, align 4
  store i32 %7, ptr %6, align 4
  br label %8

8:                                                ; preds = %1
  %9 = load i64, ptr getelementptr inbounds nuw (%struct.slurm_conf_t, ptr @slurm_conf, i32 0, i32 42), align 8
  %10 = and i64 %9, 268435456
  %11 = icmp ne i64 %10, 0
  br i1 %11, label %12, label %21

12:                                               ; preds = %8
  br label %13

13:                                               ; preds = %12
  %14 = call i32 @get_log_level()
  %15 = icmp sge i32 %14, 4
  br i1 %15, label %16, label %18

16:                                               ; preds = %13
  %17 = load i32, ptr %2, align 4
  call void (i32, ptr, ...) @log_var(i32 noundef 4, ptr noundef @.str.5, ptr noundef @__func__.setup_job_state_hash, i32 noundef %17)
  br label %18

18:                                               ; preds = %16, %13
  br label %19

19:                                               ; preds = %18
  br label %20

20:                                               ; preds = %19
  br label %21

21:                                               ; preds = %20, %8
  br label %22

22:                                               ; preds = %21
  br label %23

23:                                               ; preds = %22
  br label %24

24:                                               ; preds = %23
  call void @llvm.lifetime.start.p0(i64 4, ptr %4) #8
  %25 = call i32 @pthread_rwlock_wrlock(ptr noundef @cache_lock) #8
  store i32 %25, ptr %4, align 4
  %26 = load i32, ptr %4, align 4
  %27 = icmp ne i32 %26, 0
  br i1 %27, label %28, label %31

28:                                               ; preds = %24
  %29 = load i32, ptr %4, align 4
  %30 = call ptr @__errno_location() #9
  store i32 %29, ptr %30, align 4
  call void (ptr, ...) @fatal_abort(ptr noundef @.str.1, ptr noundef @__func__.setup_job_state_hash) #10
  unreachable

31:                                               ; preds = %24
  call void @llvm.lifetime.end.p0(i64 4, ptr %4) #8
  br label %32

32:                                               ; preds = %31
  br label %33

33:                                               ; preds = %32
  %34 = load i32, ptr %2, align 4
  %35 = sext i32 %34 to i64
  %36 = call ptr @xahash_new_table_funcname(ptr noundef @_hash, ptr noundef @.str.6, ptr noundef @_match, ptr noundef @.str.7, ptr noundef @_on_insert, ptr noundef @.str.8, ptr noundef @_on_free, ptr noundef @.str.9, i64 noundef 4, i64 noundef 32, i64 noundef %35)
  store ptr %36, ptr @cache_table, align 8
  %37 = load ptr, ptr @cache_table, align 8
  %38 = call ptr @xahash_get_state_ptr(ptr noundef %37)
  call void @llvm.memcpy.p0.p0.i64(ptr align 4 %38, ptr align 4 %3, i64 4, i1 false)
  %39 = load i32, ptr %2, align 4
  %40 = sext i32 %39 to i64
  %41 = call ptr @xahash_new_table_funcname(ptr noundef @_hash, ptr noundef @.str.6, ptr noundef @_array_job_match, ptr noundef @.str.10, ptr noundef @_array_job_on_insert, ptr noundef @.str.11, ptr noundef @_array_job_on_free, ptr noundef @.str.12, i64 noundef 4, i64 noundef 8, i64 noundef %40)
  store ptr %41, ptr @array_job_cache_table, align 8
  %42 = load ptr, ptr @array_job_cache_table, align 8
  %43 = call ptr @xahash_get_state_ptr(ptr noundef %42)
  call void @llvm.memcpy.p0.p0.i64(ptr align 4 %43, ptr align 4 %3, i64 4, i1 false)
  %44 = load i32, ptr %2, align 4
  %45 = sext i32 %44 to i64
  %46 = call ptr @xahash_new_table_funcname(ptr noundef @_array_task_hash, ptr noundef @.str.13, ptr noundef @_array_task_match, ptr noundef @.str.14, ptr noundef @_array_task_on_insert, ptr noundef @.str.15, ptr noundef @_array_task_on_free, ptr noundef @.str.16, i64 noundef 4, i64 noundef 12, i64 noundef %45)
  store ptr %46, ptr @array_task_cache_table, align 8
  %47 = load ptr, ptr @array_task_cache_table, align 8
  %48 = call ptr @xahash_get_state_ptr(ptr noundef %47)
  call void @llvm.memcpy.p0.p0.i64(ptr align 4 %48, ptr align 4 %3, i64 4, i1 false)
  br label %49

49:                                               ; preds = %33
  call void @llvm.lifetime.start.p0(i64 4, ptr %5) #8
  %50 = call i32 @pthread_rwlock_unlock(ptr noundef @cache_lock) #8
  store i32 %50, ptr %5, align 4
  %51 = load i32, ptr %5, align 4
  %52 = icmp ne i32 %51, 0
  br i1 %52, label %53, label %56

53:                                               ; preds = %49
  %54 = load i32, ptr %5, align 4
  %55 = call ptr @__errno_location() #9
  store i32 %54, ptr %55, align 4
  call void (ptr, ...) @fatal_abort(ptr noundef @.str.4, ptr noundef @__func__.setup_job_state_hash) #10
  unreachable

56:                                               ; preds = %49
  call void @llvm.lifetime.end.p0(i64 4, ptr %5) #8
  br label %57

57:                                               ; preds = %56
  br label %58

58:                                               ; preds = %57
  call void @llvm.lifetime.end.p0(i64 4, ptr %3) #8
  ret void
}