; Function Attrs: nounwind uwtable
define dso_local void @setup_job_state_hash(i32 noundef %0) local_unnamed_addr #0 {
  %2 = load i64, ptr getelementptr inbounds nuw (i8, ptr @slurm_conf, i64 320), align 8
  %3 = and i64 %2, 268435456
  %.not = icmp eq i64 %3, 0
  br i1 %.not, label %8, label %4

4:                                                ; preds = %1
  %5 = tail call i32 @get_log_level() #9
  %6 = icmp sgt i32 %5, 3
  br i1 %6, label %7, label %8

7:                                                ; preds = %4
  tail call void (i32, ptr, ...) @log_var(i32 noundef 4, ptr noundef nonnull @.str.5, ptr noundef nonnull @__func__.setup_job_state_hash, i32 noundef %0) #9
  br label %8

8:                                                ; preds = %1, %7, %4
  %9 = tail call i32 @pthread_rwlock_wrlock(ptr noundef nonnull @cache_lock) #9
  %.not12 = icmp eq i32 %9, 0
  br i1 %.not12, label %12, label %10

10:                                               ; preds = %8
  %11 = tail call ptr @__errno_location() #10
  store i32 %9, ptr %11, align 4
  tail call void (ptr, ...) @fatal_abort(ptr noundef nonnull @.str.1, ptr noundef nonnull @__func__.setup_job_state_hash) #11
  unreachable

12:                                               ; preds = %8
  %13 = sext i32 %0 to i64
  %14 = tail call ptr @xahash_new_table_funcname(ptr noundef nonnull @_hash, ptr noundef nonnull @.str.6, ptr noundef nonnull @_match, ptr noundef nonnull @.str.7, ptr noundef nonnull @_on_insert, ptr noundef nonnull @.str.8, ptr noundef nonnull @_on_free, ptr noundef nonnull @.str.9, i64 noundef 4, i64 noundef 32, i64 noundef %13) #9
  store ptr %14, ptr @cache_table, align 8
  %15 = tail call ptr @xahash_get_state_ptr(ptr noundef %14) #9
  store i32 %0, ptr %15, align 4
  %16 = tail call ptr @xahash_new_table_funcname(ptr noundef nonnull @_hash, ptr noundef nonnull @.str.6, ptr noundef nonnull @_array_job_match, ptr noundef nonnull @.str.10, ptr noundef nonnull @_array_job_on_insert, ptr noundef nonnull @.str.11, ptr noundef nonnull @_array_job_on_free, ptr noundef nonnull @.str.12, i64 noundef 4, i64 noundef 8, i64 noundef %13) #9
  store ptr %16, ptr @array_job_cache_table, align 8
  %17 = tail call ptr @xahash_get_state_ptr(ptr noundef %16) #9
  store i32 %0, ptr %17, align 4
  %18 = tail call ptr @xahash_new_table_funcname(ptr noundef nonnull @_array_task_hash, ptr noundef nonnull @.str.13, ptr noundef nonnull @_array_task_match, ptr noundef nonnull @.str.14, ptr noundef nonnull @_array_task_on_insert, ptr noundef nonnull @.str.15, ptr noundef nonnull @_array_task_on_free, ptr noundef nonnull @.str.16, i64 noundef 4, i64 noundef 12, i64 noundef %13) #9
  store ptr %18, ptr @array_task_cache_table, align 8
  %19 = tail call ptr @xahash_get_state_ptr(ptr noundef %18) #9
  store i32 %0, ptr %19, align 4
  %20 = tail call i32 @pthread_rwlock_unlock(ptr noundef nonnull @cache_lock) #9
  %.not13 = icmp eq i32 %20, 0
  br i1 %.not13, label %23, label %21

21:                                               ; preds = %12
  %22 = tail call ptr @__errno_location() #10
  store i32 %20, ptr %22, align 4
  tail call void (ptr, ...) @fatal_abort(ptr noundef nonnull @.str.4, ptr noundef nonnull @__func__.setup_job_state_hash) #11
  unreachable

23:                                               ; preds = %12
  ret void
}